target datalayout = "e-m:e-p270:32:32-p271:32:32-p272:64:64-i64:64-i128:128-f80:128-n8:16:32:64-S128"
target triple = "x86_64-unknown-linux-gnu"

%"class.arrow::Status" = type { ptr }
%"class.std::__shared_count" = type { ptr }
%"struct.arrow::compute::ExecBatch" = type { %"class.std::vector.36", %"class.std::shared_ptr.41", %"class.arrow::compute::Expression", i64, i64 }
%"class.std::vector.36" = type { %"struct.std::_Vector_base.37" }
%"struct.std::_Vector_base.37" = type { %"struct.std::_Vector_base<arrow::Datum, std::allocator<arrow::Datum>>::_Vector_impl" }
%"struct.std::_Vector_base<arrow::Datum, std::allocator<arrow::Datum>>::_Vector_impl" = type { %"struct.std::_Vector_base<arrow::Datum, std::allocator<arrow::Datum>>::_Vector_impl_data" }
%"struct.std::_Vector_base<arrow::Datum, std::allocator<arrow::Datum>>::_Vector_impl_data" = type { ptr, ptr, ptr }
%"class.std::shared_ptr.41" = type { %"class.std::__shared_ptr.42" }
%"class.std::__shared_ptr.42" = type { ptr, %"class.std::__shared_count" }
%"class.arrow::compute::Expression" = type { %"class.std::shared_ptr.44" }
%"class.std::shared_ptr.44" = type { %"class.std::__shared_ptr.45" }
%"class.std::__shared_ptr.45" = type { ptr, %"class.std::__shared_count" }

; Function Attrs: mustprogress uwtable
define void @_ZN5arrow7compute25ColumnArraysFromExecBatchERKNS0_9ExecBatchEPSt6vectorINS0_14KeyColumnArrayESaIS5_EE(ptr noalias sret(%"class.arrow::Status") align 8 %agg.result, ptr noundef nonnull align 8 dereferenceable(72) %batch, ptr noundef %column_arrays) #2 {
entry:
  %result.ptr = alloca ptr, align 8
  %batch.addr = alloca ptr, align 8
  %column_arrays.addr = alloca ptr, align 8
  store ptr %agg.result, ptr %result.ptr, align 8
  store ptr %batch, ptr %batch.addr, align 8
  store ptr %column_arrays, ptr %column_arrays.addr, align 8
  %0 = load ptr, ptr %batch.addr, align 8
  %1 = load ptr, ptr %batch.addr, align 8
  %length = getelementptr inbounds %"struct.arrow::compute::ExecBatch", ptr %1, i32 0, i32 3
  %2 = load i64, ptr %length, align 8
  %conv = trunc i64 %2 to i32
  %conv1 = sext i32 %conv to i64
  %3 = load ptr, ptr %column_arrays.addr, align 8
  call void @_ZN5arrow7compute25ColumnArraysFromExecBatchERKNS0_9ExecBatchEllPSt6vectorINS0_14KeyColumnArrayESaIS5_EE(ptr sret(%"class.arrow::Status") align 8 %agg.result, ptr noundef nonnull align 8 dereferenceable(72) %0, i64 noundef 0, i64 noundef %conv1, ptr noundef %3)
  ret void
}