; Function Attrs: mustprogress uwtable
define void @_ZN5arrow7compute25ColumnArraysFromExecBatchERKNS0_9ExecBatchEPSt6vectorINS0_14KeyColumnArrayESaIS5_EE(ptr noalias nocapture writeonly sret(%"class.arrow::Status") align 8 %agg.result, ptr nocapture noundef nonnull readonly align 8 dereferenceable(72) %batch, ptr noundef %column_arrays) local_unnamed_addr #2 {
entry:
  %length = getelementptr inbounds i8, ptr %batch, i64 56
  %0 = load i64, ptr %length, align 8
  %sext = shl i64 %0, 32
  %conv1 = ashr exact i64 %sext, 32
  tail call void @_ZN5arrow7compute25ColumnArraysFromExecBatchERKNS0_9ExecBatchEllPSt6vectorINS0_14KeyColumnArrayESaIS5_EE(ptr sret(%"class.arrow::Status") align 8 %agg.result, ptr noundef nonnull align 8 dereferenceable(72) %batch, i64 noundef 0, i64 noundef %conv1, ptr noundef %column_arrays)
  ret void
}